target datalayout = "e-m:e-p270:32:32-p271:32:32-p272:64:64-i64:64-i128:128-f80:128-n8:16:32:64-S128"
target triple = "x86_64-pc-linux-gnu"

%"class.net::PacingSender" = type <{ ptr, %"class.net::QuicBandwidth", i32, [4 x i8], %"class.net::QuicTime", %"class.net::QuicTime", i8, [7 x i8] }>
%"class.net::QuicBandwidth" = type { i64 }
%"class.net::QuicTime" = type { i64 }

; Function Attrs: inlinehint mustprogress nounwind uwtable
define linkonce_odr noundef nonnull align 8 dereferenceable(8) ptr @_ZSt3minIlERKT_S2_S2_(ptr noundef nonnull align 8 dereferenceable(8) %0, ptr noundef nonnull align 8 dereferenceable(8) %1) #7 comdat {
  %3 = alloca ptr, align 8
  %4 = alloca ptr, align 8
  %5 = alloca ptr, align 8
  store ptr %0, ptr %4, align 8, !tbaa !42
  store ptr %1, ptr %5, align 8, !tbaa !42
  %6 = load ptr, ptr %5, align 8, !tbaa !42
  %7 = load i64, ptr %6, align 8, !tbaa !3
  %8 = load ptr, ptr %4, align 8, !tbaa !42
  %9 = load i64, ptr %8, align 8, !tbaa !3
  %10 = icmp slt i64 %7, %9
  br i1 %10, label %11, label %13

11:                                               ; preds = %2
  %12 = load ptr, ptr %5, align 8, !tbaa !42
  store ptr %12, ptr %3, align 8
  br label %15

13:                                               ; preds = %2
  %14 = load ptr, ptr %4, align 8, !tbaa !42
  store ptr %14, ptr %3, align 8
  br label %15

15:                                               ; preds = %13, %11
  %16 = load ptr, ptr %3, align 8
  ret ptr %16
}

; Function Attrs: mustprogress uwtable
define i64 @_ZNK3net12PacingSender10PacingRateEm(ptr noundef nonnull align 8 dereferenceable(41) %0, i64 noundef %1) #3 align 2 {
  %3 = alloca %"class.net::QuicBandwidth", align 8
  %4 = alloca ptr, align 8
  %5 = alloca i64, align 8
  %6 = alloca i64, align 8
  %7 = alloca i64, align 8
  %8 = alloca %"class.net::QuicBandwidth", align 8
  store ptr %0, ptr %4, align 8, !tbaa !7
  store i64 %1, ptr %5, align 8, !tbaa !3
  %9 = load ptr, ptr %4, align 8
  %10 = getelementptr inbounds nuw %"class.net::PacingSender", ptr %9, i32 0, i32 1
  %11 = call noundef zeroext i1 @_ZNK3net13QuicBandwidth6IsZeroEv(ptr noundef nonnull align 8 dereferenceable(8) %10)
  br i1 %11, label %28, label %12

12:                                               ; preds = %2
  call void @llvm.lifetime.start.p0(i64 8, ptr %6) #8
  %13 = getelementptr inbounds nuw %"class.net::PacingSender", ptr %9, i32 0, i32 1
  %14 = call noundef i64 @_ZNK3net13QuicBandwidth15ToBitsPerSecondEv(ptr noundef nonnull align 8 dereferenceable(8) %13)
  store i64 %14, ptr %6, align 8, !tbaa !3
  call void @llvm.lifetime.start.p0(i64 8, ptr %7) #8
  call void @llvm.lifetime.start.p0(i64 8, ptr %8) #8
  %15 = getelementptr inbounds nuw %"class.net::PacingSender", ptr %9, i32 0, i32 0
  %16 = load ptr, ptr %15, align 8, !tbaa !10
  %17 = load i64, ptr %5, align 8, !tbaa !3
  %18 = load ptr, ptr %16, align 8, !tbaa !25
  %19 = getelementptr inbounds ptr, ptr %18, i64 9
  %20 = load ptr, ptr %19, align 8
  %21 = call i64 %20(ptr noundef nonnull align 8 dereferenceable(8) %16, i64 noundef %17)
  %22 = getelementptr inbounds nuw %"class.net::QuicBandwidth", ptr %8, i32 0, i32 0
  store i64 %21, ptr %22, align 8
  %23 = call noundef i64 @_ZNK3net13QuicBandwidth15ToBitsPerSecondEv(ptr noundef nonnull align 8 dereferenceable(8) %8)
  store i64 %23, ptr %7, align 8, !tbaa !3
  %24 = call noundef nonnull align 8 dereferenceable(8) ptr @_ZSt3minIlERKT_S2_S2_(ptr noundef nonnull align 8 dereferenceable(8) %6, ptr noundef nonnull align 8 dereferenceable(8) %7)
  %25 = load i64, ptr %24, align 8, !tbaa !3
  %26 = call i64 @_ZN3net13QuicBandwidth17FromBitsPerSecondEl(i64 noundef %25)
  %27 = getelementptr inbounds nuw %"class.net::QuicBandwidth", ptr %3, i32 0, i32 0
  store i64 %26, ptr %27, align 8
  call void @llvm.lifetime.end.p0(i64 8, ptr %8) #8
  call void @llvm.lifetime.end.p0(i64 8, ptr %7) #8
  call void @llvm.lifetime.end.p0(i64 8, ptr %6) #8
  br label %37

28:                                               ; preds = %2
  %29 = getelementptr inbounds nuw %"class.net::PacingSender", ptr %9, i32 0, i32 0
  %30 = load ptr, ptr %29, align 8, !tbaa !10
  %31 = load i64, ptr %5, align 8, !tbaa !3
  %32 = load ptr, ptr %30, align 8, !tbaa !25
  %33 = getelementptr inbounds ptr, ptr %32, i64 9
  %34 = load ptr, ptr %33, align 8
  %35 = call i64 %34(ptr noundef nonnull align 8 dereferenceable(8) %30, i64 noundef %31)
  %36 = getelementptr inbounds nuw %"class.net::QuicBandwidth", ptr %3, i32 0, i32 0
  store i64 %35, ptr %36, align 8
  br label %37

37:                                               ; preds = %28, %12
  %38 = getelementptr inbounds nuw %"class.net::QuicBandwidth", ptr %3, i32 0, i32 0
  %39 = load i64, ptr %38, align 8
  ret i64 %39
}