; Function Attrs: mustprogress uwtable
define i64 @_ZNK3net12PacingSender10PacingRateEm(ptr noundef nonnull align 8 dereferenceable(41) %0, i64 noundef %1) local_unnamed_addr #0 align 2 {
  %3 = alloca %"class.net::QuicBandwidth", align 8
  %4 = getelementptr inbounds nuw i8, ptr %0, i64 8
  %5 = tail call noundef zeroext i1 @_ZNK3net13QuicBandwidth6IsZeroEv(ptr noundef nonnull align 8 dereferenceable(8) %4)
  br i1 %5, label %15, label %6

6:                                                ; preds = %2
  %7 = tail call noundef i64 @_ZNK3net13QuicBandwidth15ToBitsPerSecondEv(ptr noundef nonnull align 8 dereferenceable(8) %4)
  call void @llvm.lifetime.start.p0(i64 8, ptr nonnull %3) #7
  %8 = load ptr, ptr %0, align 8, !tbaa !3
  %9 = load ptr, ptr %8, align 8, !tbaa !17
  %10 = getelementptr inbounds nuw i8, ptr %9, i64 72
  %11 = load ptr, ptr %10, align 8
  %12 = tail call i64 %11(ptr noundef nonnull align 8 dereferenceable(8) %8, i64 noundef %1)
  store i64 %12, ptr %3, align 8
  %13 = call noundef i64 @_ZNK3net13QuicBandwidth15ToBitsPerSecondEv(ptr noundef nonnull align 8 dereferenceable(8) %3)
  %.sroa.speculated = call i64 @llvm.smin.i64(i64 %13, i64 %7)
  %14 = call i64 @_ZN3net13QuicBandwidth17FromBitsPerSecondEl(i64 noundef %.sroa.speculated)
  call void @llvm.lifetime.end.p0(i64 8, ptr nonnull %3) #7
  br label %21

15:                                               ; preds = %2
  %16 = load ptr, ptr %0, align 8, !tbaa !3
  %17 = load ptr, ptr %16, align 8, !tbaa !17
  %18 = getelementptr inbounds nuw i8, ptr %17, i64 72
  %19 = load ptr, ptr %18, align 8
  %20 = tail call i64 %19(ptr noundef nonnull align 8 dereferenceable(8) %16, i64 noundef %1)
  br label %21

21:                                               ; preds = %15, %6
  %.sroa.0.0 = phi i64 [ %20, %15 ], [ %14, %6 ]
  ret i64 %.sroa.0.0
}